	.file	"main.c"
	.text
.Ltext0:
	.cfi_sections	.debug_frame
	.comm	buffer, 10, 3
	.def	__main;	.scl	2;	.type	32;	.endef
	.globl	main
	.def	main;	.scl	2;	.type	32;	.endef
	.seh_proc	main
main:
.LFB13:
	.file 1 "main.c"
	.loc 1 30 16
	.cfi_startproc
	pushq	%rbp
	.seh_pushreg	%rbp
	.cfi_def_cfa_offset 16
	.cfi_offset 6, -16
	movq	%rsp, %rbp
	.seh_setframe	%rbp, 0
	.cfi_def_cfa_register 6
	subq	$48, %rsp
	.seh_stackalloc	48
	.seh_endprologue
	.loc 1 30 16
	call	__main
.LVL0:
	.loc 1 35 3
	movl	$10, %edx
	leaq	buffer(%rip), %rax
	movq	%rax, %rcx
	call	clear_all
	.loc 1 36 3
	leaq	buffer(%rip), %rax
	leaq	8(%rax), %rax
	movl	$2, %r8d
	movl	$43, %edx
	movq	%rax, %rcx
	call	set_all
	.loc 1 37 3
	movl	$97, %r8d
	movl	$0, %edx
	leaq	buffer(%rip), %rax
	movq	%rax, %rcx
	call	set_value
	.loc 1 38 11
	movl	$9, %edx
	leaq	buffer(%rip), %rax
	movq	%rax, %rcx
	call	get_value
	movb	%al, -5(%rbp)
	.loc 1 39 31
	movzbl	-5(%rbp), %eax
	addl	$39, %eax
	.loc 1 39 3
	movsbl	%al, %eax
	movl	%eax, %r8d
	movl	$9, %edx
	leaq	buffer(%rip), %rax
	movq	%rax, %rcx
	call	set_value
	.loc 1 40 3
	movl	$55, %r8d
	movl	$3, %edx
	leaq	buffer(%rip), %rax
	movq	%rax, %rcx
	call	set_value
	.loc 1 41 3
	movl	$88, %r8d
	movl	$1, %edx
	leaq	buffer(%rip), %rax
	movq	%rax, %rcx
	call	set_value
	.loc 1 42 3
	movl	$50, %r8d
	movl	$4, %edx
	leaq	buffer(%rip), %rax
	movq	%rax, %rcx
	call	set_value
	.loc 1 43 11
	movl	$1, %edx
	leaq	buffer(%rip), %rax
	movq	%rax, %rcx
	call	get_value
	movb	%al, -5(%rbp)
	.loc 1 44 3
	movl	$121, %r8d
	movl	$2, %edx
	leaq	buffer(%rip), %rax
	movq	%rax, %rcx
	call	set_value
	.loc 1 45 31
	movzbl	-5(%rbp), %eax
	subl	$12, %eax
	.loc 1 45 3
	movsbl	%al, %eax
	movl	%eax, %r8d
	movl	$7, %edx
	leaq	buffer(%rip), %rax
	movq	%rax, %rcx
	call	set_value
	.loc 1 46 3
	movl	$95, %r8d
	movl	$5, %edx
	leaq	buffer(%rip), %rax
	movq	%rax, %rcx
	call	set_value
	.loc 1 48 11
	movl	$0, -4(%rbp)
	.loc 1 48 3
	jmp	.L2
.L3:
	.loc 1 49 5 discriminator 3
	leaq	buffer(%rip), %rdx
	movl	-4(%rbp), %eax
	movzbl	(%rdx,%rax), %eax
	movsbl	%al, %eax
	movl	%eax, %ecx
	call	putchar
	.loc 1 48 33 discriminator 3
	addl	$1, -4(%rbp)
.L2:
	.loc 1 48 3 discriminator 1
	cmpl	$9, -4(%rbp)
	jbe	.L3
	.loc 1 51 3
	movl	$10, %ecx
	call	putchar
	.loc 1 52 10
	movl	$0, %eax
	.loc 1 53 1
	addq	$48, %rsp
	popq	%rbp
	.cfi_restore 6
	.cfi_def_cfa 7, 8
	ret
	.cfi_endproc
.LFE13:
	.seh_endproc
.Letext0: